; Function Attrs: null_pointer_is_valid sspstrong uwtable
define ptr @find_conversation_pinfo(ptr noundef %0, i32 noundef %1) local_unnamed_addr #0 {
  %3 = getelementptr inbounds nuw i8, ptr %0, i64 304
  %4 = load i8, ptr %3, align 8, !range !15, !noundef !16
  %5 = trunc nuw i8 %4 to i1
  br i1 %5, label %6, label %27

6:                                                ; preds = %2
  %7 = getelementptr inbounds nuw i8, ptr %0, i64 312
  %8 = load ptr, ptr %7, align 8
  %.not42 = icmp eq ptr %8, null
  br i1 %.not42, label %9, label %10

9:                                                ; preds = %6
  tail call void (ptr, ...) @proto_report_dissector_bug(ptr noundef nonnull @.str, ptr noundef nonnull @.str.1, i32 noundef 2400, ptr noundef nonnull @.str.13) #16
  unreachable

10:                                               ; preds = %6
  %11 = getelementptr inbounds nuw i8, ptr %0, i64 20
  %12 = load i32, ptr %11, align 4
  %13 = getelementptr inbounds nuw i8, ptr %8, i64 24
  %14 = getelementptr inbounds nuw i8, ptr %8, i64 56
  %15 = load i32, ptr %14, align 8
  %16 = getelementptr inbounds nuw i8, ptr %8, i64 48
  %17 = load i32, ptr %16, align 8
  %18 = getelementptr inbounds nuw i8, ptr %8, i64 52
  %19 = load i32, ptr %18, align 4
  %20 = tail call ptr @find_conversation(i32 noundef %12, ptr noundef nonnull %8, ptr noundef nonnull %13, i32 noundef %15, i32 noundef %17, i32 noundef %19, i32 noundef 0)
  %.not43 = icmp eq ptr %20, null
  br i1 %.not43, label %59, label %21

21:                                               ; preds = %10
  %22 = load i32, ptr %11, align 4
  %23 = getelementptr inbounds nuw i8, ptr %20, i64 32
  %24 = load i32, ptr %23, align 8
  %25 = icmp ugt i32 %22, %24
  br i1 %25, label %26, label %59

26:                                               ; preds = %21
  store i32 %22, ptr %23, align 8
  br label %59

27:                                               ; preds = %2
  %28 = getelementptr inbounds nuw i8, ptr %0, i64 320
  %29 = load ptr, ptr %28, align 8
  %.not = icmp eq ptr %29, null
  %30 = getelementptr inbounds nuw i8, ptr %0, i64 20
  %31 = load i32, ptr %30, align 4
  br i1 %.not, label %40, label %32

32:                                               ; preds = %27
  %33 = tail call ptr @find_conversation_full(i32 noundef %31, ptr noundef nonnull %29)
  %.not41 = icmp eq ptr %33, null
  br i1 %.not41, label %59, label %34

34:                                               ; preds = %32
  %35 = load i32, ptr %30, align 4
  %36 = getelementptr inbounds nuw i8, ptr %33, i64 32
  %37 = load i32, ptr %36, align 8
  %38 = icmp ugt i32 %35, %37
  br i1 %38, label %39, label %59

39:                                               ; preds = %34
  store i32 %35, ptr %36, align 8
  br label %59

40:                                               ; preds = %27
  %41 = getelementptr inbounds nuw i8, ptr %0, i64 280
  %42 = load i32, ptr %41, align 8
  %43 = icmp ult i32 %42, 14
  br i1 %43, label %switch.lookup, label %44

44:                                               ; preds = %40
  tail call void (ptr, ...) @proto_report_dissector_bug(ptr noundef nonnull @.str, ptr noundef nonnull @.str.1, i32 noundef 2669, ptr noundef nonnull @.str.14) #16
  unreachable

switch.lookup:                                    ; preds = %40
  %45 = getelementptr inbounds nuw i8, ptr %0, i64 232
  %46 = getelementptr inbounds nuw i8, ptr %0, i64 208
  %47 = zext nneg i32 %42 to i64
  %switch.gep = getelementptr inbounds nuw [14 x i32], ptr @switch.table.conversation_pt_to_endpoint_type, i64 0, i64 %47
  %switch.load = load i32, ptr %switch.gep, align 4
  %48 = getelementptr inbounds nuw i8, ptr %0, i64 284
  %49 = load i32, ptr %48, align 4
  %50 = getelementptr inbounds nuw i8, ptr %0, i64 288
  %51 = load i32, ptr %50, align 8
  %52 = tail call ptr @find_conversation(i32 noundef %31, ptr noundef nonnull %46, ptr noundef nonnull %45, i32 noundef %switch.load, i32 noundef %49, i32 noundef %51, i32 noundef %1)
  %.not40 = icmp eq ptr %52, null
  br i1 %.not40, label %59, label %53

53:                                               ; preds = %switch.lookup
  %54 = load i32, ptr %30, align 4
  %55 = getelementptr inbounds nuw i8, ptr %52, i64 32
  %56 = load i32, ptr %55, align 8
  %57 = icmp ugt i32 %54, %56
  br i1 %57, label %58, label %59

58:                                               ; preds = %53
  store i32 %54, ptr %55, align 8
  br label %59

59:                                               ; preds = %34, %39, %32, %53, %58, %switch.lookup, %10, %26, %21
  %.0 = phi ptr [ %20, %26 ], [ %20, %21 ], [ null, %10 ], [ %33, %39 ], [ %33, %34 ], [ null, %32 ], [ %52, %58 ], [ %52, %53 ], [ null, %switch.lookup ]
  ret ptr %.0
}